target datalayout = "e-m:e-p270:32:32-p271:32:32-p272:64:64-i64:64-i128:128-f80:128-n8:16:32:64-S128"
target triple = "x86_64-pc-linux-gnu"

%"class.LIEF::MachO::ChainedBindingInfoList" = type { %"class.LIEF::MachO::ChainedBindingInfo", %"class.std::vector" }
%"class.LIEF::MachO::ChainedBindingInfo" = type { %"class.LIEF::MachO::BindingInfo", i32, i32, i32, i32, %union.anon }
%"class.LIEF::MachO::BindingInfo" = type { %"class.LIEF::Object", ptr, ptr, i32, i64, i8, ptr, i64 }
%"class.LIEF::Object" = type { ptr }
%union.anon = type { ptr }
%"class.std::vector" = type { %"struct.std::_Vector_base" }
%"struct.std::_Vector_base" = type { %"struct.std::_Vector_base<LIEF::MachO::ChainedBindingInfo *, std::allocator<LIEF::MachO::ChainedBindingInfo *>>::_Vector_impl" }
%"struct.std::_Vector_base<LIEF::MachO::ChainedBindingInfo *, std::allocator<LIEF::MachO::ChainedBindingInfo *>>::_Vector_impl" = type { %"struct.std::_Vector_base<LIEF::MachO::ChainedBindingInfo *, std::allocator<LIEF::MachO::ChainedBindingInfo *>>::_Vector_impl_data" }
%"struct.std::_Vector_base<LIEF::MachO::ChainedBindingInfo *, std::allocator<LIEF::MachO::ChainedBindingInfo *>>::_Vector_impl_data" = type { ptr, ptr, ptr }

; Function Attrs: mustprogress nounwind uwtable
define linkonce_odr hidden void @_ZNSt15__new_allocatorIPN4LIEF5MachO18ChainedBindingInfoEED2Ev(ptr noundef nonnull align 1 dereferenceable(1) %0) unnamed_addr #2 comdat align 2 {
  %2 = alloca ptr, align 8
  store ptr %0, ptr %2, align 8
  ret void
}

; Function Attrs: mustprogress nounwind uwtable
define linkonce_odr hidden void @_ZNSt15__new_allocatorIPN4LIEF5MachO18ChainedBindingInfoEE10deallocateEPS3_m(ptr noundef nonnull align 1 dereferenceable(1) %0, ptr noundef %1, i64 noundef %2) #2 comdat align 2 {
  %4 = alloca ptr, align 8
  %5 = alloca ptr, align 8
  %6 = alloca i64, align 8
  store ptr %0, ptr %4, align 8
  store ptr %1, ptr %5, align 8
  store i64 %2, ptr %6, align 8
  %7 = load ptr, ptr %5, align 8
  call void @_ZdlPv(ptr noundef %7) #8
  ret void
}

; Function Attrs: mustprogress nounwind uwtable
define linkonce_odr hidden void @_ZNSaIPN4LIEF5MachO18ChainedBindingInfoEED2Ev(ptr noundef nonnull align 1 dereferenceable(1) %0) unnamed_addr #2 comdat align 2 {
  %2 = alloca ptr, align 8
  store ptr %0, ptr %2, align 8
  %3 = load ptr, ptr %2, align 8
  call void @_ZNSt15__new_allocatorIPN4LIEF5MachO18ChainedBindingInfoEED2Ev(ptr noundef nonnull align 1 dereferenceable(1) %3) #6
  ret void
}

; Function Attrs: mustprogress uwtable
define linkonce_odr hidden void @_ZNSt16allocator_traitsISaIPN4LIEF5MachO18ChainedBindingInfoEEE10deallocateERS4_PS3_m(ptr noundef nonnull align 1 dereferenceable(1) %0, ptr noundef %1, i64 noundef %2) #0 comdat align 2 {
  %4 = alloca ptr, align 8
  %5 = alloca ptr, align 8
  %6 = alloca i64, align 8
  store ptr %0, ptr %4, align 8
  store ptr %1, ptr %5, align 8
  store i64 %2, ptr %6, align 8
  %7 = load ptr, ptr %4, align 8
  %8 = load ptr, ptr %5, align 8
  %9 = load i64, ptr %6, align 8
  call void @_ZNSt15__new_allocatorIPN4LIEF5MachO18ChainedBindingInfoEE10deallocateEPS3_m(ptr noundef nonnull align 1 dereferenceable(1) %7, ptr noundef %8, i64 noundef %9)
  ret void
}

; Function Attrs: mustprogress nounwind uwtable
define linkonce_odr hidden void @_ZNSt12_Destroy_auxILb1EE9__destroyIPPN4LIEF5MachO18ChainedBindingInfoEEEvT_S7_(ptr noundef %0, ptr noundef %1) #2 comdat align 2 {
  %3 = alloca ptr, align 8
  %4 = alloca ptr, align 8
  store ptr %0, ptr %3, align 8
  store ptr %1, ptr %4, align 8
  ret void
}

; Function Attrs: mustprogress nounwind uwtable
define linkonce_odr hidden void @_ZNSt12_Vector_baseIPN4LIEF5MachO18ChainedBindingInfoESaIS3_EE12_Vector_implD2Ev(ptr noundef nonnull align 8 dereferenceable(24) %0) unnamed_addr #2 comdat align 2 {
  %2 = alloca ptr, align 8
  store ptr %0, ptr %2, align 8
  %3 = load ptr, ptr %2, align 8
  call void @_ZNSaIPN4LIEF5MachO18ChainedBindingInfoEED2Ev(ptr noundef nonnull align 1 dereferenceable(1) %3) #6
  ret void
}

; Function Attrs: mustprogress uwtable
define linkonce_odr hidden void @_ZNSt12_Vector_baseIPN4LIEF5MachO18ChainedBindingInfoESaIS3_EE13_M_deallocateEPS3_m(ptr noundef nonnull align 8 dereferenceable(24) %0, ptr noundef %1, i64 noundef %2) #0 comdat align 2 {
  %4 = alloca ptr, align 8
  %5 = alloca ptr, align 8
  %6 = alloca i64, align 8
  store ptr %0, ptr %4, align 8
  store ptr %1, ptr %5, align 8
  store i64 %2, ptr %6, align 8
  %7 = load ptr, ptr %4, align 8
  %8 = load ptr, ptr %5, align 8
  %9 = icmp ne ptr %8, null
  br i1 %9, label %10, label %14

10:                                               ; preds = %3
  %11 = getelementptr inbounds %"struct.std::_Vector_base", ptr %7, i32 0, i32 0
  %12 = load ptr, ptr %5, align 8
  %13 = load i64, ptr %6, align 8
  call void @_ZNSt16allocator_traitsISaIPN4LIEF5MachO18ChainedBindingInfoEEE10deallocateERS4_PS3_m(ptr noundef nonnull align 1 dereferenceable(1) %11, ptr noundef %12, i64 noundef %13)
  br label %14

14:                                               ; preds = %10, %3
  ret void
}

; Function Attrs: mustprogress uwtable
define linkonce_odr void @_ZSt8_DestroyIPPN4LIEF5MachO18ChainedBindingInfoEEvT_S5_(ptr noundef %0, ptr noundef %1) #0 comdat {
  %3 = alloca ptr, align 8
  %4 = alloca ptr, align 8
  store ptr %0, ptr %3, align 8
  store ptr %1, ptr %4, align 8
  %5 = load ptr, ptr %3, align 8
  %6 = load ptr, ptr %4, align 8
  call void @_ZNSt12_Destroy_auxILb1EE9__destroyIPPN4LIEF5MachO18ChainedBindingInfoEEEvT_S7_(ptr noundef %5, ptr noundef %6)
  ret void
}

; Function Attrs: noreturn nounwind uwtable
define linkonce_odr hidden void @__clang_call_terminate(ptr noundef %0) #5 comdat {
  %2 = call ptr @__cxa_begin_catch(ptr %0) #6
  call void @_ZSt9terminatev() #7
  unreachable
}

; Function Attrs: mustprogress nounwind uwtable
define linkonce_odr hidden void @_ZNSt12_Vector_baseIPN4LIEF5MachO18ChainedBindingInfoESaIS3_EED2Ev(ptr noundef nonnull align 8 dereferenceable(24) %0) unnamed_addr #2 comdat align 2 personality ptr @__gxx_personality_v0 {
  %2 = alloca ptr, align 8
  store ptr %0, ptr %2, align 8
  %3 = load ptr, ptr %2, align 8
  %4 = getelementptr inbounds %"struct.std::_Vector_base", ptr %3, i32 0, i32 0
  %5 = getelementptr inbounds %"struct.std::_Vector_base<LIEF::MachO::ChainedBindingInfo *, std::allocator<LIEF::MachO::ChainedBindingInfo *>>::_Vector_impl_data", ptr %4, i32 0, i32 0
  %6 = load ptr, ptr %5, align 8
  %7 = getelementptr inbounds %"struct.std::_Vector_base", ptr %3, i32 0, i32 0
  %8 = getelementptr inbounds %"struct.std::_Vector_base<LIEF::MachO::ChainedBindingInfo *, std::allocator<LIEF::MachO::ChainedBindingInfo *>>::_Vector_impl_data", ptr %7, i32 0, i32 2
  %9 = load ptr, ptr %8, align 8
  %10 = getelementptr inbounds %"struct.std::_Vector_base", ptr %3, i32 0, i32 0
  %11 = getelementptr inbounds %"struct.std::_Vector_base<LIEF::MachO::ChainedBindingInfo *, std::allocator<LIEF::MachO::ChainedBindingInfo *>>::_Vector_impl_data", ptr %10, i32 0, i32 0
  %12 = load ptr, ptr %11, align 8
  %13 = ptrtoint ptr %9 to i64
  %14 = ptrtoint ptr %12 to i64
  %15 = sub i64 %13, %14
  %16 = sdiv exact i64 %15, 8
  invoke void @_ZNSt12_Vector_baseIPN4LIEF5MachO18ChainedBindingInfoESaIS3_EE13_M_deallocateEPS3_m(ptr noundef nonnull align 8 dereferenceable(24) %3, ptr noundef %6, i64 noundef %16)
          to label %17 unwind label %19

17:                                               ; preds = %1
  %18 = getelementptr inbounds %"struct.std::_Vector_base", ptr %3, i32 0, i32 0
  call void @_ZNSt12_Vector_baseIPN4LIEF5MachO18ChainedBindingInfoESaIS3_EE12_Vector_implD2Ev(ptr noundef nonnull align 8 dereferenceable(24) %18) #6
  ret void

19:                                               ; preds = %1
  %20 = landingpad { ptr, i32 }
          catch ptr null
  %21 = extractvalue { ptr, i32 } %20, 0
  call void @__clang_call_terminate(ptr %21) #7
  unreachable
}

; Function Attrs: mustprogress uwtable
define linkonce_odr void @_ZSt8_DestroyIPPN4LIEF5MachO18ChainedBindingInfoES3_EvT_S5_RSaIT0_E(ptr noundef %0, ptr noundef %1, ptr noundef nonnull align 1 dereferenceable(1) %2) #0 comdat {
  %4 = alloca ptr, align 8
  %5 = alloca ptr, align 8
  %6 = alloca ptr, align 8
  store ptr %0, ptr %4, align 8
  store ptr %1, ptr %5, align 8
  store ptr %2, ptr %6, align 8
  %7 = load ptr, ptr %4, align 8
  %8 = load ptr, ptr %5, align 8
  call void @_ZSt8_DestroyIPPN4LIEF5MachO18ChainedBindingInfoEEvT_S5_(ptr noundef %7, ptr noundef %8)
  ret void
}

; Function Attrs: mustprogress nounwind uwtable
define linkonce_odr hidden noundef nonnull align 1 dereferenceable(1) ptr @_ZNSt12_Vector_baseIPN4LIEF5MachO18ChainedBindingInfoESaIS3_EE19_M_get_Tp_allocatorEv(ptr noundef nonnull align 8 dereferenceable(24) %0) #2 comdat align 2 {
  %2 = alloca ptr, align 8
  store ptr %0, ptr %2, align 8
  %3 = load ptr, ptr %2, align 8
  %4 = getelementptr inbounds %"struct.std::_Vector_base", ptr %3, i32 0, i32 0
  ret ptr %4
}

; Function Attrs: mustprogress nounwind uwtable
define linkonce_odr hidden void @_ZNSt6vectorIPN4LIEF5MachO18ChainedBindingInfoESaIS3_EED2Ev(ptr noundef nonnull align 8 dereferenceable(24) %0) unnamed_addr #2 comdat align 2 personality ptr @__gxx_personality_v0 {
  %2 = alloca ptr, align 8
  store ptr %0, ptr %2, align 8
  %3 = load ptr, ptr %2, align 8
  %4 = getelementptr inbounds %"struct.std::_Vector_base", ptr %3, i32 0, i32 0
  %5 = getelementptr inbounds %"struct.std::_Vector_base<LIEF::MachO::ChainedBindingInfo *, std::allocator<LIEF::MachO::ChainedBindingInfo *>>::_Vector_impl_data", ptr %4, i32 0, i32 0
  %6 = load ptr, ptr %5, align 8
  %7 = getelementptr inbounds %"struct.std::_Vector_base", ptr %3, i32 0, i32 0
  %8 = getelementptr inbounds %"struct.std::_Vector_base<LIEF::MachO::ChainedBindingInfo *, std::allocator<LIEF::MachO::ChainedBindingInfo *>>::_Vector_impl_data", ptr %7, i32 0, i32 1
  %9 = load ptr, ptr %8, align 8
  %10 = call noundef nonnull align 1 dereferenceable(1) ptr @_ZNSt12_Vector_baseIPN4LIEF5MachO18ChainedBindingInfoESaIS3_EE19_M_get_Tp_allocatorEv(ptr noundef nonnull align 8 dereferenceable(24) %3) #6
  invoke void @_ZSt8_DestroyIPPN4LIEF5MachO18ChainedBindingInfoES3_EvT_S5_RSaIT0_E(ptr noundef %6, ptr noundef %9, ptr noundef nonnull align 1 dereferenceable(1) %10)
          to label %11 unwind label %12

11:                                               ; preds = %1
  call void @_ZNSt12_Vector_baseIPN4LIEF5MachO18ChainedBindingInfoESaIS3_EED2Ev(ptr noundef nonnull align 8 dereferenceable(24) %3) #6
  ret void

12:                                               ; preds = %1
  %13 = landingpad { ptr, i32 }
          catch ptr null
  %14 = extractvalue { ptr, i32 } %13, 0
  call void @__clang_call_terminate(ptr %14) #7
  unreachable
}

; Function Attrs: mustprogress nounwind uwtable
define hidden void @_ZN4LIEF5MachO22ChainedBindingInfoListD2Ev(ptr noundef nonnull align 8 dereferenceable(112) %0) unnamed_addr #2 align 2 {
  %2 = alloca ptr, align 8
  store ptr %0, ptr %2, align 8
  %3 = load ptr, ptr %2, align 8
  store ptr getelementptr inbounds ({ [10 x ptr] }, ptr @_ZTVN4LIEF5MachO22ChainedBindingInfoListE, i32 0, i32 0, i32 2), ptr %3, align 8
  %4 = getelementptr inbounds %"class.LIEF::MachO::ChainedBindingInfoList", ptr %3, i32 0, i32 1
  call void @_ZNSt6vectorIPN4LIEF5MachO18ChainedBindingInfoESaIS3_EED2Ev(ptr noundef nonnull align 8 dereferenceable(24) %4) #6
  call void @_ZN4LIEF5MachO18ChainedBindingInfoD2Ev(ptr noundef nonnull align 8 dereferenceable(88) %3) #6
  ret void
}